target datalayout = "e-m:e-p270:32:32-p271:32:32-p272:64:64-i64:64-i128:128-f80:128-n8:16:32:64-S128"
target triple = "x86_64-pc-linux-gnu"

@splash_screen = internal global ptr null, align 8
@progress_text = internal global ptr null, align 8
@remaining_box = internal global ptr null, align 8
@showing_remaining = internal global i32 0, align 4

; Function Attrs: nounwind uwtable
define internal void @_process_all_gui_events() #0 {
  %1 = alloca i32, align 4
  call void @llvm.lifetime.start.p0(i64 4, ptr %1) #8
  store i32 0, ptr %1, align 4, !tbaa !11
  br label %2

2:                                                ; preds = %7, %0
  %3 = load i32, ptr %1, align 4, !tbaa !11
  %4 = icmp slt i32 %3, 5
  br i1 %4, label %6, label %5

5:                                                ; preds = %2
  call void @llvm.lifetime.end.p0(i64 4, ptr %1) #8
  br label %10

6:                                                ; preds = %2
  call void @g_usleep(i64 noundef 1000)
  call void (...) @dt_gui_process_events()
  br label %7

7:                                                ; preds = %6
  %8 = load i32, ptr %1, align 4, !tbaa !11
  %9 = add nsw i32 %8, 1
  store i32 %9, ptr %1, align 4, !tbaa !11
  br label %2

10:                                               ; preds = %5
  ret void
}

; Function Attrs: nounwind uwtable
define void @darktable_splash_screen_set_progress(ptr noundef %0) #0 {
  %2 = alloca ptr, align 8
  store ptr %0, ptr %2, align 8, !tbaa !15
  %3 = load ptr, ptr @splash_screen, align 8, !tbaa !13
  %4 = icmp ne ptr %3, null
  br i1 %4, label %5, label %16

5:                                                ; preds = %1
  %6 = load ptr, ptr @progress_text, align 8, !tbaa !13
  %7 = call i64 @gtk_label_get_type() #9
  %8 = call ptr @g_type_check_instance_cast(ptr noundef %6, i64 noundef %7)
  %9 = load ptr, ptr %2, align 8, !tbaa !15
  call void @gtk_label_set_text(ptr noundef %8, ptr noundef %9)
  %10 = load ptr, ptr @progress_text, align 8, !tbaa !13
  call void @gtk_widget_show(ptr noundef %10)
  %11 = load i32, ptr @showing_remaining, align 4, !tbaa !11
  %12 = icmp ne i32 %11, 0
  br i1 %12, label %13, label %15

13:                                               ; preds = %5
  %14 = load ptr, ptr @remaining_box, align 8, !tbaa !13
  call void @gtk_widget_hide(ptr noundef %14)
  store i32 0, ptr @showing_remaining, align 4, !tbaa !11
  br label %15

15:                                               ; preds = %13, %5
  call void @_process_all_gui_events()
  br label %16

16:                                               ; preds = %15, %1
  ret void
}