; Function Attrs: nounwind uwtable
define void @darktable_splash_screen_set_progress(ptr noundef %0) local_unnamed_addr #0 {
  %2 = load ptr, ptr @splash_screen, align 8, !tbaa !6
  %.not = icmp eq ptr %2, null
  br i1 %.not, label %_process_all_gui_events.exit, label %3

3:                                                ; preds = %1
  %4 = load ptr, ptr @progress_text, align 8, !tbaa !6
  %5 = tail call i64 @gtk_label_get_type() #8
  %6 = tail call ptr @g_type_check_instance_cast(ptr noundef %4, i64 noundef %5) #7
  tail call void @gtk_label_set_text(ptr noundef %6, ptr noundef %0) #7
  %7 = load ptr, ptr @progress_text, align 8, !tbaa !6
  tail call void @gtk_widget_show(ptr noundef %7) #7
  %.b = load i1, ptr @showing_remaining, align 4
  br i1 %.b, label %8, label %.preheader

8:                                                ; preds = %3
  %9 = load ptr, ptr @remaining_box, align 8, !tbaa !6
  tail call void @gtk_widget_hide(ptr noundef %9) #7
  store i1 false, ptr @showing_remaining, align 4
  br label %.preheader

.preheader:                                       ; preds = %8, %3
  br label %10

10:                                               ; preds = %.preheader, %10
  %.02.i = phi i32 [ %11, %10 ], [ 0, %.preheader ]
  tail call void @g_usleep(i64 noundef 1000) #7
  tail call void (...) @dt_gui_process_events() #7
  %11 = add nuw nsw i32 %.02.i, 1
  %exitcond.not.i = icmp eq i32 %11, 5
  br i1 %exitcond.not.i, label %_process_all_gui_events.exit, label %10

_process_all_gui_events.exit:                     ; preds = %10, %1
  ret void
}